(lp0
(S'sz000415'
p1
S'000415'
p2
tp3
a(S'sz002256'
p4
S'002256'
p5
tp6
a(S'sz300207'
p7
S'300207'
p8
tp9
a(S'sz300015'
p10
S'300015'
p11
tp12
a(S'sh600257'
p13
S'600257'
p14
tp15
a(S'sz002183'
p16
S'002183'
p17
tp18
a(S'sz002425'
p19
S'002425'
p20
tp21
a(S'sz000534'
p22
S'000534'
p23
tp24
a(S'sz002711'
p25
S'002711'
p26
tp27
a(S'sz300030'
p28
S'300030'
p29
tp30
a(S'sz002130'
p31
S'002130'
p32
tp33
a(S'sz002388'
p34
S'002388'
p35
tp36
a(S'sz300167'
p37
S'300167'
p38
tp39
a(S'sh600588'
p40
S'600588'
p41
tp42
a(S'sz002551'
p43
S'002551'
p44
tp45
a(S'sz002210'
p46
S'002210'
p47
tp48
a(S'sz002249'
p49
S'002249'
p50
tp51
a(S'sz300277'
p52
S'300277'
p53
tp54
a(S'sz300090'
p55
S'300090'
p56
tp57
a(S'sz002620'
p58
S'002620'
p59
tp60
a(S'sz000039'
p61
S'000039'
p62
tp63
a(S'sz000035'
p64
S'000035'
p65
tp66
a(S'sh600518'
p67
S'600518'
p68
tp69
a(S'sh600577'
p70
S'600577'
p71
tp72
a(S'sz002416'
p73
S'002416'
p74
tp75
a(S'sz002583'
p76
S'002583'
p77
tp78
a(S'sz002684'
p79
S'002684'
p80
tp81
a(S'sz300088'
p82
S'300088'
p83
tp84
a(S'sh600567'
p85
S'600567'
p86
tp87
a(S'sz002640'
p88
S'002640'
p89
tp90
a(S'sh600446'
p91
S'600446'
p92
tp93
a(S'sh600978'
p94
S'600978'
p95
tp96
a(S'sh600696'
p97
S'600696'
p98
tp99
a(S'sz002325'
p100
S'002325'
p101
tp102
a(S'sz002334'
p103
S'002334'
p104
tp105
a(S'sz002535'
p106
S'002535'
p107
tp108
a(S'sz000837'
p109
S'000837'
p110
tp111
a(S'sz300348'
p112
S'300348'
p113
tp114
a(S'sz300301'
p115
S'300301'
p116
tp117
a.